target datalayout = "e-m:e-p270:32:32-p271:32:32-p272:64:64-i64:64-i128:128-f80:128-n8:16:32:64-S128"
target triple = "x86_64-pc-linux-gnu"

%class.OopMapSet = type { %class.GrowableArray }
%class.GrowableArray = type { %class.GrowableArrayWithAllocator, %class.GrowableArrayMetadata }
%class.GrowableArrayWithAllocator = type { %class.GrowableArrayView }
%class.GrowableArrayView = type { %class.GrowableArrayBase, ptr }
%class.GrowableArrayBase = type { i32, i32 }
%class.GrowableArrayMetadata = type { i64 }
%class.ImmutableOopMapBuilder = type { ptr, ptr, ptr, i32, i32, i32, i32, ptr, ptr }

; Function Attrs: mustprogress nounwind uwtable
define linkonce_odr hidden noundef i32 @_ZNK17GrowableArrayBase6lengthEv(ptr noundef nonnull align 4 dereferenceable(8) %0) #1 comdat align 2 {
  %2 = alloca ptr, align 8
  store ptr %0, ptr %2, align 8
  %3 = load ptr, ptr %2, align 8
  %4 = getelementptr inbounds %class.GrowableArrayBase, ptr %3, i32 0, i32 0
  %5 = load i32, ptr %4, align 4
  ret i32 %5
}

; Function Attrs: mustprogress nounwind uwtable
define linkonce_odr hidden noundef i32 @_ZNK9OopMapSet4sizeEv(ptr noundef nonnull align 8 dereferenceable(24) %0) #1 comdat align 2 {
  %2 = alloca ptr, align 8
  store ptr %0, ptr %2, align 8
  %3 = load ptr, ptr %2, align 8
  %4 = getelementptr inbounds %class.OopMapSet, ptr %3, i32 0, i32 0
  %5 = call noundef i32 @_ZNK17GrowableArrayBase6lengthEv(ptr noundef nonnull align 4 dereferenceable(8) %4)
  ret i32 %5
}

; Function Attrs: mustprogress nounwind uwtable
define hidden void @_ZN22ImmutableOopMapBuilderC2EPK9OopMapSet(ptr noundef nonnull align 8 dereferenceable(56) %0, ptr noundef %1) unnamed_addr #1 align 2 {
  %3 = alloca ptr, align 8
  %4 = alloca ptr, align 8
  store ptr %0, ptr %3, align 8
  store ptr %1, ptr %4, align 8
  %5 = load ptr, ptr %3, align 8
  %6 = getelementptr inbounds %class.ImmutableOopMapBuilder, ptr %5, i32 0, i32 0
  %7 = load ptr, ptr %4, align 8
  store ptr %7, ptr %6, align 8
  %8 = getelementptr inbounds %class.ImmutableOopMapBuilder, ptr %5, i32 0, i32 1
  store ptr null, ptr %8, align 8
  %9 = getelementptr inbounds %class.ImmutableOopMapBuilder, ptr %5, i32 0, i32 2
  store ptr null, ptr %9, align 8
  %10 = getelementptr inbounds %class.ImmutableOopMapBuilder, ptr %5, i32 0, i32 3
  store i32 -1, ptr %10, align 8
  %11 = getelementptr inbounds %class.ImmutableOopMapBuilder, ptr %5, i32 0, i32 4
  store i32 -1, ptr %11, align 4
  %12 = getelementptr inbounds %class.ImmutableOopMapBuilder, ptr %5, i32 0, i32 5
  store i32 0, ptr %12, align 8
  %13 = getelementptr inbounds %class.ImmutableOopMapBuilder, ptr %5, i32 0, i32 6
  store i32 -1, ptr %13, align 4
  %14 = getelementptr inbounds %class.ImmutableOopMapBuilder, ptr %5, i32 0, i32 8
  store ptr null, ptr %14, align 8
  %15 = getelementptr inbounds %class.ImmutableOopMapBuilder, ptr %5, i32 0, i32 0
  %16 = load ptr, ptr %15, align 8
  %17 = call noundef i32 @_ZNK9OopMapSet4sizeEv(ptr noundef nonnull align 8 dereferenceable(24) %16)
  %18 = sext i32 %17 to i64
  %19 = mul i64 %18, 32
  %20 = call noundef ptr @_Z23resource_allocate_bytesmN17AllocFailStrategy13AllocFailEnumE(i64 noundef %19, i32 noundef 0)
  %21 = getelementptr inbounds %class.ImmutableOopMapBuilder, ptr %5, i32 0, i32 7
  store ptr %20, ptr %21, align 8
  ret void
}