; Function Attrs: mustprogress nounwind uwtable
define hidden void @_ZN22ImmutableOopMapBuilderC2EPK9OopMapSet(ptr nocapture noundef nonnull writeonly align 8 dereferenceable(56) %0, ptr noundef %1) unnamed_addr #2 align 2 {
  store ptr %1, ptr %0, align 8
  %3 = getelementptr inbounds i8, ptr %0, i64 8
  %4 = getelementptr inbounds i8, ptr %0, i64 24
  tail call void @llvm.memset.p0.i64(ptr noundef nonnull align 8 dereferenceable(16) %3, i8 0, i64 16, i1 false)
  store <4 x i32> <i32 -1, i32 -1, i32 0, i32 -1>, ptr %4, align 8
  %5 = getelementptr inbounds i8, ptr %0, i64 48
  store ptr null, ptr %5, align 8
  %6 = load i32, ptr %1, align 4
  %7 = sext i32 %6 to i64
  %8 = shl nsw i64 %7, 5
  %9 = tail call noundef ptr @_Z23resource_allocate_bytesmN17AllocFailStrategy13AllocFailEnumE(i64 noundef %8, i32 noundef 0) #19
  %10 = getelementptr inbounds i8, ptr %0, i64 40
  store ptr %9, ptr %10, align 8
  ret void
}